; Function Attrs: mustprogress nounwind uwtable
define internal fastcc void @_ZN12_GLOBAL__N_116LinearExpressionD2Ev(ptr nocapture noundef nonnull readonly align 8 dereferenceable(58) %0) unnamed_addr #0 align 2 {
  %2 = getelementptr inbounds i8, ptr %0, i64 48
  %3 = load i32, ptr %2, align 8
  %4 = icmp ugt i32 %3, 64
  br i1 %4, label %5, label %_ZN4llvm5APIntD2Ev.exit

5:                                                ; preds = %1
  %6 = getelementptr inbounds nuw i8, ptr %0, i64 40
  %7 = load ptr, ptr %6, align 8
  %8 = icmp eq ptr %7, null
  br i1 %8, label %_ZN4llvm5APIntD2Ev.exit, label %9

9:                                                ; preds = %5
  tail call void @_ZdaPv(ptr noundef nonnull %7) #26
  br label %_ZN4llvm5APIntD2Ev.exit

_ZN4llvm5APIntD2Ev.exit:                          ; preds = %1, %5, %9
  %10 = getelementptr inbounds i8, ptr %0, i64 32
  %11 = load i32, ptr %10, align 8
  %12 = icmp ugt i32 %11, 64
  br i1 %12, label %13, label %_ZN4llvm5APIntD2Ev.exit1

13:                                               ; preds = %_ZN4llvm5APIntD2Ev.exit
  %14 = getelementptr inbounds nuw i8, ptr %0, i64 24
  %15 = load ptr, ptr %14, align 8
  %16 = icmp eq ptr %15, null
  br i1 %16, label %_ZN4llvm5APIntD2Ev.exit1, label %17

17:                                               ; preds = %13
  tail call void @_ZdaPv(ptr noundef nonnull %15) #26
  br label %_ZN4llvm5APIntD2Ev.exit1

_ZN4llvm5APIntD2Ev.exit1:                         ; preds = %_ZN4llvm5APIntD2Ev.exit, %13, %17
  ret void
}